; Function Attrs: mustprogress uwtable
define internal void @_ZNK12_GLOBAL__N_120BuiltinFilesRegistry36try_append_all_port_names_no_networkERSt6vectorINSt7__cxx1112basic_stringIcSt11char_traitsIcESaIcEEESaIS7_EE(ptr dead_on_unwind noalias writable sret(%"struct.vcpkg::ExpectedT.59") align 8 %0, ptr noundef nonnull align 8 dereferenceable(104) %1, ptr noundef nonnull align 8 dereferenceable(24) %2) unnamed_addr #2 align 2 personality ptr @__gxx_personality_v0 {
  %4 = alloca %"struct.vcpkg::ExpectedT.15", align 8
  call void @_ZNK12_GLOBAL__N_120BuiltinFilesRegistry21append_all_port_namesERSt6vectorINSt7__cxx1112basic_stringIcSt11char_traitsIcESaIcEEESaIS7_EE(ptr dead_on_unwind nonnull writable sret(%"struct.vcpkg::ExpectedT.15") align 8 %4, ptr noundef nonnull align 8 dereferenceable(104) %1, ptr noundef nonnull align 8 dereferenceable(24) %2)
  %5 = getelementptr inbounds i8, ptr %4, i64 32
  %6 = load i8, ptr %5, align 8
  %7 = and i8 %6, 1
  %.not.i = icmp eq i8 %7, 0
  br i1 %.not.i, label %.thread, label %9

.thread:                                          ; preds = %3
  store i8 1, ptr %0, align 8, !alias.scope !231
  %8 = getelementptr inbounds i8, ptr %0, i64 32
  store i8 0, ptr %8, align 8, !alias.scope !231
  br label %_ZN5vcpkg9ExpectedTINS_4UnitENS_15LocalizedStringEED2Ev.exit

9:                                                ; preds = %3
  call void @_ZNSt7__cxx1112basic_stringIcSt11char_traitsIcESaIcEEC1EOS4_(ptr noundef nonnull align 8 dereferenceable(32) %0, ptr noundef nonnull align 8 dereferenceable(32) %4) #26
  %.pre = load i8, ptr %5, align 8
  %.pre6 = and i8 %.pre, 1
  %10 = icmp eq i8 %.pre6, 0
  %11 = getelementptr inbounds i8, ptr %0, i64 32
  store i8 1, ptr %11, align 8, !alias.scope !231
  br i1 %10, label %_ZN5vcpkg9ExpectedTINS_4UnitENS_15LocalizedStringEED2Ev.exit, label %12

12:                                               ; preds = %9
  call void @_ZNSt7__cxx1112basic_stringIcSt11char_traitsIcESaIcEED1Ev(ptr noundef nonnull align 8 dereferenceable(32) %4) #26
  br label %_ZN5vcpkg9ExpectedTINS_4UnitENS_15LocalizedStringEED2Ev.exit

_ZN5vcpkg9ExpectedTINS_4UnitENS_15LocalizedStringEED2Ev.exit: ; preds = %.thread, %9, %12
  ret void
}